target datalayout = "e-m:e-p270:32:32-p271:32:32-p272:64:64-i64:64-i128:128-f80:128-n8:16:32:64-S128"
target triple = "x86_64-pc-linux-gnu"

%struct.archive_write = type { %struct.archive, i32, i64, i64, ptr, i64, ptr, ptr, ptr, ptr, ptr, i32, i32, ptr, ptr, ptr, ptr, ptr, ptr, ptr, ptr, ptr, ptr, ptr, ptr, ptr, ptr }
%struct.archive = type { i32, i32, ptr, i32, ptr, i32, i32, ptr, %struct.archive_string, ptr, i32, i32, ptr, ptr, i64, i64, i64, i8, i64 }
%struct.archive_string = type { ptr, i64, i64 }
%struct._7zip = type { i32, i64, ptr, i64, i64, i64, i64, i64, [3 x i64], i64, i64, i64, i32, i32, i32, i32, i32, i32, %struct.la_zstream, %struct.coder, ptr, [61440 x i8], i64, %struct.anon, %struct.anon, %struct.archive_rb_tree }
%struct.la_zstream = type { ptr, i64, i64, ptr, i64, i64, i32, ptr, i32, ptr, ptr, ptr }
%struct.coder = type { i32, i64, ptr }
%struct.anon = type { ptr, ptr }
%struct.archive_rb_tree = type { ptr, ptr }
%struct.file = type { %struct.archive_rb_node, ptr, i32, ptr, i64, i32, [3 x %struct.anon.0], i32, i32, i8 }
%struct.archive_rb_node = type { [2 x ptr], i64 }
%struct.anon.0 = type { i64, i64 }

; Function Attrs: nounwind uwtable
define internal void @file_free(ptr noundef %0) #0 {
  %2 = alloca ptr, align 8
  store ptr %0, ptr %2, align 8
  %3 = load ptr, ptr %2, align 8
  %4 = getelementptr inbounds %struct.file, ptr %3, i32 0, i32 3
  %5 = load ptr, ptr %4, align 8
  call void @free(ptr noundef %5) #10
  %6 = load ptr, ptr %2, align 8
  call void @free(ptr noundef %6) #10
  ret void
}

; Function Attrs: nounwind uwtable
define internal i32 @compression_end(ptr noundef %0, ptr noundef %1) #0 {
  %3 = alloca i32, align 4
  %4 = alloca ptr, align 8
  %5 = alloca ptr, align 8
  store ptr %0, ptr %4, align 8
  store ptr %1, ptr %5, align 8
  %6 = load ptr, ptr %5, align 8
  %7 = getelementptr inbounds %struct.la_zstream, ptr %6, i32 0, i32 8
  %8 = load i32, ptr %7, align 8
  %9 = icmp ne i32 %8, 0
  br i1 %9, label %10, label %24

10:                                               ; preds = %2
  %11 = load ptr, ptr %5, align 8
  %12 = getelementptr inbounds %struct.la_zstream, ptr %11, i32 0, i32 6
  store i32 0, ptr %12, align 8
  %13 = load ptr, ptr %5, align 8
  %14 = getelementptr inbounds %struct.la_zstream, ptr %13, i32 0, i32 7
  %15 = load ptr, ptr %14, align 8
  call void @free(ptr noundef %15) #10
  %16 = load ptr, ptr %5, align 8
  %17 = getelementptr inbounds %struct.la_zstream, ptr %16, i32 0, i32 7
  store ptr null, ptr %17, align 8
  %18 = load ptr, ptr %5, align 8
  %19 = getelementptr inbounds %struct.la_zstream, ptr %18, i32 0, i32 11
  %20 = load ptr, ptr %19, align 8
  %21 = load ptr, ptr %4, align 8
  %22 = load ptr, ptr %5, align 8
  %23 = call i32 %20(ptr noundef %21, ptr noundef %22)
  store i32 %23, ptr %3, align 4
  br label %25

24:                                               ; preds = %2
  store i32 0, ptr %3, align 4
  br label %25

25:                                               ; preds = %24, %10
  %26 = load i32, ptr %3, align 4
  ret i32 %26
}

; Function Attrs: nounwind uwtable
define internal void @file_free_register(ptr noundef %0) #0 {
  %2 = alloca ptr, align 8
  %3 = alloca ptr, align 8
  %4 = alloca ptr, align 8
  store ptr %0, ptr %2, align 8
  %5 = load ptr, ptr %2, align 8
  %6 = getelementptr inbounds %struct._7zip, ptr %5, i32 0, i32 23
  %7 = getelementptr inbounds %struct.anon, ptr %6, i32 0, i32 0
  %8 = load ptr, ptr %7, align 8
  store ptr %8, ptr %3, align 8
  br label %9

9:                                                ; preds = %12, %1
  %10 = load ptr, ptr %3, align 8
  %11 = icmp ne ptr %10, null
  br i1 %11, label %12, label %18

12:                                               ; preds = %9
  %13 = load ptr, ptr %3, align 8
  %14 = getelementptr inbounds %struct.file, ptr %13, i32 0, i32 1
  %15 = load ptr, ptr %14, align 8
  store ptr %15, ptr %4, align 8
  %16 = load ptr, ptr %3, align 8
  call void @file_free(ptr noundef %16)
  %17 = load ptr, ptr %4, align 8
  store ptr %17, ptr %3, align 8
  br label %9, !llvm.loop !26

18:                                               ; preds = %9
  ret void
}

; Function Attrs: nounwind uwtable
define internal i32 @_7z_free(ptr noundef %0) #0 {
  %2 = alloca ptr, align 8
  %3 = alloca ptr, align 8
  store ptr %0, ptr %2, align 8
  %4 = load ptr, ptr %2, align 8
  %5 = getelementptr inbounds %struct.archive_write, ptr %4, i32 0, i32 15
  %6 = load ptr, ptr %5, align 8
  store ptr %6, ptr %3, align 8
  %7 = load ptr, ptr %3, align 8
  %8 = getelementptr inbounds %struct._7zip, ptr %7, i32 0, i32 0
  %9 = load i32, ptr %8, align 8
  %10 = icmp sge i32 %9, 0
  br i1 %10, label %11, label %16

11:                                               ; preds = %1
  %12 = load ptr, ptr %3, align 8
  %13 = getelementptr inbounds %struct._7zip, ptr %12, i32 0, i32 0
  %14 = load i32, ptr %13, align 8
  %15 = call i32 @close(i32 noundef %14)
  br label %16

16:                                               ; preds = %11, %1
  %17 = load ptr, ptr %3, align 8
  call void @file_free_register(ptr noundef %17)
  %18 = load ptr, ptr %2, align 8
  %19 = getelementptr inbounds %struct.archive_write, ptr %18, i32 0, i32 0
  %20 = load ptr, ptr %3, align 8
  %21 = getelementptr inbounds %struct._7zip, ptr %20, i32 0, i32 18
  %22 = call i32 @compression_end(ptr noundef %19, ptr noundef %21)
  %23 = load ptr, ptr %3, align 8
  %24 = getelementptr inbounds %struct._7zip, ptr %23, i32 0, i32 19
  %25 = getelementptr inbounds %struct.coder, ptr %24, i32 0, i32 2
  %26 = load ptr, ptr %25, align 8
  call void @free(ptr noundef %26) #10
  %27 = load ptr, ptr %3, align 8
  call void @free(ptr noundef %27) #10
  ret i32 0
}