; Function Attrs: nounwind uwtable
define internal noundef i32 @_7z_free(ptr noundef %0) #0 {
  %2 = getelementptr inbounds nuw i8, ptr %0, i64 248
  %3 = load ptr, ptr %2, align 8
  %4 = load i32, ptr %3, align 8
  %5 = icmp sgt i32 %4, -1
  br i1 %5, label %6, label %8

6:                                                ; preds = %1
  %7 = tail call i32 @close(i32 noundef %4) #18
  br label %8

8:                                                ; preds = %6, %1
  %9 = getelementptr i8, ptr %3, i64 61712
  %.val = load ptr, ptr %9, align 8
  %.not1.i = icmp eq ptr %.val, null
  br i1 %.not1.i, label %file_free_register.exit, label %.lr.ph.i

.lr.ph.i:                                         ; preds = %8, %.lr.ph.i
  %.02.i = phi ptr [ %11, %.lr.ph.i ], [ %.val, %8 ]
  %10 = getelementptr inbounds nuw i8, ptr %.02.i, i64 24
  %11 = load ptr, ptr %10, align 8
  %12 = getelementptr inbounds nuw i8, ptr %.02.i, i64 40
  %13 = load ptr, ptr %12, align 8
  tail call void @free(ptr noundef %13) #18
  tail call void @free(ptr noundef nonnull %.02.i) #18
  %.not.i = icmp eq ptr %11, null
  br i1 %.not.i, label %file_free_register.exit, label %.lr.ph.i, !llvm.loop !14

file_free_register.exit:                          ; preds = %.lr.ph.i, %8
  %14 = getelementptr inbounds nuw i8, ptr %3, i64 200
  %15 = load i32, ptr %14, align 8
  %.not.i8 = icmp eq i32 %15, 0
  br i1 %.not.i8, label %compression_end.exit, label %16

16:                                               ; preds = %file_free_register.exit
  %17 = getelementptr inbounds nuw i8, ptr %3, i64 136
  %18 = getelementptr inbounds nuw i8, ptr %3, i64 184
  store i32 0, ptr %18, align 8
  %19 = getelementptr inbounds nuw i8, ptr %3, i64 192
  %20 = load ptr, ptr %19, align 8
  tail call void @free(ptr noundef %20) #18
  store ptr null, ptr %19, align 8
  %21 = getelementptr inbounds nuw i8, ptr %3, i64 224
  %22 = load ptr, ptr %21, align 8
  %23 = tail call i32 %22(ptr noundef %0, ptr noundef nonnull %17) #18
  br label %compression_end.exit

compression_end.exit:                             ; preds = %file_free_register.exit, %16
  %24 = getelementptr inbounds nuw i8, ptr %3, i64 248
  %25 = load ptr, ptr %24, align 8
  tail call void @free(ptr noundef %25) #18
  tail call void @free(ptr noundef nonnull %3) #18
  ret i32 0
}